target datalayout = "e-m:e-p270:32:32-p271:32:32-p272:64:64-i64:64-i128:128-f80:128-n8:16:32:64-S128"
target triple = "x86_64-pc-linux-gnu"

%struct.lean_object = type { i32, i32 }
%struct.lean_ctor_object = type { %struct.lean_object, [0 x ptr] }

; Function Attrs: inlinehint nounwind uwtable
define internal ptr @lean_to_ctor(ptr noundef %0) #0 {
  %2 = alloca ptr, align 8
  store ptr %0, ptr %2, align 8, !tbaa !8
  %3 = load ptr, ptr %2, align 8, !tbaa !8
  ret ptr %3
}

; Function Attrs: alwaysinline nounwind uwtable
define internal zeroext i1 @lean_nat_eq(ptr noundef %0, ptr noundef %1) #1 {
  %3 = alloca i1, align 1
  %4 = alloca ptr, align 8
  %5 = alloca ptr, align 8
  store ptr %0, ptr %4, align 8, !tbaa !8
  store ptr %1, ptr %5, align 8, !tbaa !8
  %6 = load ptr, ptr %4, align 8, !tbaa !8
  %7 = call zeroext i1 @lean_is_scalar(ptr noundef %6)
  br i1 %7, label %8, label %11

8:                                                ; preds = %2
  %9 = load ptr, ptr %5, align 8, !tbaa !8
  %10 = call zeroext i1 @lean_is_scalar(ptr noundef %9)
  br label %11

11:                                               ; preds = %8, %2
  %12 = phi i1 [ false, %2 ], [ %10, %8 ]
  %13 = zext i1 %12 to i32
  %14 = sext i32 %13 to i64
  %15 = call i64 @llvm.expect.i64(i64 %14, i64 1)
  %16 = icmp ne i64 %15, 0
  br i1 %16, label %17, label %21

17:                                               ; preds = %11
  %18 = load ptr, ptr %4, align 8, !tbaa !8
  %19 = load ptr, ptr %5, align 8, !tbaa !8
  %20 = icmp eq ptr %18, %19
  store i1 %20, ptr %3, align 1
  br label %25

21:                                               ; preds = %11
  %22 = load ptr, ptr %4, align 8, !tbaa !8
  %23 = load ptr, ptr %5, align 8, !tbaa !8
  %24 = call zeroext i1 @lean_nat_big_eq(ptr noundef %22, ptr noundef %23)
  store i1 %24, ptr %3, align 1
  br label %25

25:                                               ; preds = %21, %17
  %26 = load i1, ptr %3, align 1
  ret i1 %26
}

; Function Attrs: inlinehint nounwind uwtable
define internal ptr @lean_ctor_obj_cptr(ptr noundef %0) #0 {
  %2 = alloca ptr, align 8
  store ptr %0, ptr %2, align 8, !tbaa !8
  %3 = load ptr, ptr %2, align 8, !tbaa !8
  %4 = call ptr @lean_to_ctor(ptr noundef %3)
  %5 = getelementptr inbounds nuw %struct.lean_ctor_object, ptr %4, i32 0, i32 1
  %6 = getelementptr inbounds [0 x ptr], ptr %5, i64 0, i64 0
  ret ptr %6
}

; Function Attrs: inlinehint nounwind uwtable
define internal zeroext i8 @lean_ptr_tag(ptr noundef %0) #0 {
  %2 = alloca ptr, align 8
  store ptr %0, ptr %2, align 8, !tbaa !8
  %3 = load ptr, ptr %2, align 8, !tbaa !8
  %4 = getelementptr inbounds nuw %struct.lean_object, ptr %3, i32 0, i32 1
  %5 = load i32, ptr %4, align 4
  %6 = lshr i32 %5, 24
  %7 = trunc i32 %6 to i8
  ret i8 %7
}

; Function Attrs: inlinehint nounwind uwtable
define internal i64 @lean_unbox(ptr noundef %0) #0 {
  %2 = alloca ptr, align 8
  store ptr %0, ptr %2, align 8, !tbaa !8
  %3 = load ptr, ptr %2, align 8, !tbaa !8
  %4 = ptrtoint ptr %3 to i64
  %5 = lshr i64 %4, 1
  ret i64 %5
}

; Function Attrs: alwaysinline nounwind uwtable
define internal zeroext i1 @lean_is_scalar(ptr noundef %0) #1 {
  %2 = alloca ptr, align 8
  store ptr %0, ptr %2, align 8, !tbaa !8
  %3 = load ptr, ptr %2, align 8, !tbaa !8
  %4 = ptrtoint ptr %3 to i64
  %5 = and i64 %4, 1
  %6 = icmp eq i64 %5, 1
  ret i1 %6
}

; Function Attrs: alwaysinline nounwind uwtable
define internal zeroext i8 @lean_nat_dec_eq(ptr noundef %0, ptr noundef %1) #1 {
  %3 = alloca ptr, align 8
  %4 = alloca ptr, align 8
  store ptr %0, ptr %3, align 8, !tbaa !8
  store ptr %1, ptr %4, align 8, !tbaa !8
  %5 = load ptr, ptr %3, align 8, !tbaa !8
  %6 = load ptr, ptr %4, align 8, !tbaa !8
  %7 = call zeroext i1 @lean_nat_eq(ptr noundef %5, ptr noundef %6)
  %8 = zext i1 %7 to i8
  ret i8 %8
}

; Function Attrs: inlinehint nounwind uwtable
define internal zeroext i8 @lean_ctor_get_uint8(ptr noundef %0, i32 noundef %1) #0 {
  %3 = alloca ptr, align 8
  %4 = alloca i32, align 4
  store ptr %0, ptr %3, align 8, !tbaa !8
  store i32 %1, ptr %4, align 4, !tbaa !11
  %5 = load ptr, ptr %3, align 8, !tbaa !8
  %6 = call ptr @lean_ctor_obj_cptr(ptr noundef %5)
  %7 = load i32, ptr %4, align 4, !tbaa !11
  %8 = zext i32 %7 to i64
  %9 = getelementptr inbounds nuw i8, ptr %6, i64 %8
  %10 = load i8, ptr %9, align 1, !tbaa !10
  ret i8 %10
}

; Function Attrs: inlinehint nounwind uwtable
define internal ptr @lean_ctor_get(ptr noundef %0, i32 noundef %1) #0 {
  %3 = alloca ptr, align 8
  %4 = alloca i32, align 4
  store ptr %0, ptr %3, align 8, !tbaa !8
  store i32 %1, ptr %4, align 4, !tbaa !11
  %5 = load ptr, ptr %3, align 8, !tbaa !8
  %6 = call ptr @lean_ctor_obj_cptr(ptr noundef %5)
  %7 = load i32, ptr %4, align 4, !tbaa !11
  %8 = zext i32 %7 to i64
  %9 = getelementptr inbounds nuw ptr, ptr %6, i64 %8
  %10 = load ptr, ptr %9, align 8, !tbaa !8
  ret ptr %10
}

; Function Attrs: inlinehint nounwind uwtable
define internal i32 @lean_obj_tag(ptr noundef %0) #0 {
  %2 = alloca i32, align 4
  %3 = alloca ptr, align 8
  store ptr %0, ptr %3, align 8, !tbaa !8
  %4 = load ptr, ptr %3, align 8, !tbaa !8
  %5 = call zeroext i1 @lean_is_scalar(ptr noundef %4)
  br i1 %5, label %6, label %10

6:                                                ; preds = %1
  %7 = load ptr, ptr %3, align 8, !tbaa !8
  %8 = call i64 @lean_unbox(ptr noundef %7)
  %9 = trunc i64 %8 to i32
  store i32 %9, ptr %2, align 4
  br label %14

10:                                               ; preds = %1
  %11 = load ptr, ptr %3, align 8, !tbaa !8
  %12 = call zeroext i8 @lean_ptr_tag(ptr noundef %11)
  %13 = zext i8 %12 to i32
  store i32 %13, ptr %2, align 4
  br label %14

14:                                               ; preds = %10, %6
  %15 = load i32, ptr %2, align 4
  ret i32 %15
}

; Function Attrs: nounwind uwtable
define zeroext i8 @l_Lean_Meta_Grind_beqSplitStatus____x40_Lean_Meta_Tactic_Grind_Split___hyg_44_(ptr noundef %0, ptr noundef %1) #2 {
  %3 = alloca i8, align 1
  %4 = alloca ptr, align 8
  %5 = alloca ptr, align 8
  %6 = alloca i8, align 1
  %7 = alloca i8, align 1
  %8 = alloca i8, align 1
  %9 = alloca i8, align 1
  %10 = alloca ptr, align 8
  %11 = alloca i8, align 1
  %12 = alloca i8, align 1
  %13 = alloca ptr, align 8
  %14 = alloca i8, align 1
  %15 = alloca i8, align 1
  %16 = alloca i8, align 1
  %17 = alloca i8, align 1
  %18 = alloca i8, align 1
  %19 = alloca i32, align 4
  %20 = alloca i8, align 1
  %21 = alloca i8, align 1
  %22 = alloca i8, align 1
  %23 = alloca i8, align 1
  %24 = alloca i8, align 1
  %25 = alloca i8, align 1
  %26 = alloca i8, align 1
  %27 = alloca i8, align 1
  store ptr %0, ptr %4, align 8, !tbaa !8
  store ptr %1, ptr %5, align 8, !tbaa !8
  br label %28

28:                                               ; preds = %2
  %29 = load ptr, ptr %4, align 8, !tbaa !8
  %30 = call i32 @lean_obj_tag(ptr noundef %29)
  switch i32 %30, label %47 [
    i32 0, label %31
    i32 1, label %39
  ]

31:                                               ; preds = %28
  %32 = load ptr, ptr %5, align 8, !tbaa !8
  %33 = call i32 @lean_obj_tag(ptr noundef %32)
  %34 = icmp eq i32 %33, 0
  br i1 %34, label %35, label %37

35:                                               ; preds = %31
  call void @llvm.lifetime.start.p0(i64 1, ptr %6) #7
  store i8 1, ptr %6, align 1, !tbaa !10
  %36 = load i8, ptr %6, align 1, !tbaa !10
  store i8 %36, ptr %3, align 1
  call void @llvm.lifetime.end.p0(i64 1, ptr %6) #7
  br label %119

37:                                               ; preds = %31
  call void @llvm.lifetime.start.p0(i64 1, ptr %7) #7
  store i8 0, ptr %7, align 1, !tbaa !10
  %38 = load i8, ptr %7, align 1, !tbaa !10
  store i8 %38, ptr %3, align 1
  call void @llvm.lifetime.end.p0(i64 1, ptr %7) #7
  br label %119

39:                                               ; preds = %28
  %40 = load ptr, ptr %5, align 8, !tbaa !8
  %41 = call i32 @lean_obj_tag(ptr noundef %40)
  %42 = icmp eq i32 %41, 1
  br i1 %42, label %43, label %45

43:                                               ; preds = %39
  call void @llvm.lifetime.start.p0(i64 1, ptr %8) #7
  store i8 1, ptr %8, align 1, !tbaa !10
  %44 = load i8, ptr %8, align 1, !tbaa !10
  store i8 %44, ptr %3, align 1
  call void @llvm.lifetime.end.p0(i64 1, ptr %8) #7
  br label %119

45:                                               ; preds = %39
  call void @llvm.lifetime.start.p0(i64 1, ptr %9) #7
  store i8 0, ptr %9, align 1, !tbaa !10
  %46 = load i8, ptr %9, align 1, !tbaa !10
  store i8 %46, ptr %3, align 1
  call void @llvm.lifetime.end.p0(i64 1, ptr %9) #7
  br label %119

47:                                               ; preds = %28
  %48 = load ptr, ptr %5, align 8, !tbaa !8
  %49 = call i32 @lean_obj_tag(ptr noundef %48)
  %50 = icmp eq i32 %49, 2
  br i1 %50, label %51, label %117

51:                                               ; preds = %47
  call void @llvm.lifetime.start.p0(i64 8, ptr %10) #7
  call void @llvm.lifetime.start.p0(i64 1, ptr %11) #7
  call void @llvm.lifetime.start.p0(i64 1, ptr %12) #7
  call void @llvm.lifetime.start.p0(i64 8, ptr %13) #7
  call void @llvm.lifetime.start.p0(i64 1, ptr %14) #7
  call void @llvm.lifetime.start.p0(i64 1, ptr %15) #7
  call void @llvm.lifetime.start.p0(i64 1, ptr %16) #7
  call void @llvm.lifetime.start.p0(i64 1, ptr %17) #7
  %52 = load ptr, ptr %4, align 8, !tbaa !8
  %53 = call ptr @lean_ctor_get(ptr noundef %52, i32 noundef 0)
  store ptr %53, ptr %10, align 8, !tbaa !8
  %54 = load ptr, ptr %4, align 8, !tbaa !8
  %55 = call zeroext i8 @lean_ctor_get_uint8(ptr noundef %54, i32 noundef 8)
  store i8 %55, ptr %11, align 1, !tbaa !10
  %56 = load ptr, ptr %4, align 8, !tbaa !8
  %57 = call zeroext i8 @lean_ctor_get_uint8(ptr noundef %56, i32 noundef 9)
  store i8 %57, ptr %12, align 1, !tbaa !10
  %58 = load ptr, ptr %5, align 8, !tbaa !8
  %59 = call ptr @lean_ctor_get(ptr noundef %58, i32 noundef 0)
  store ptr %59, ptr %13, align 8, !tbaa !8
  %60 = load ptr, ptr %5, align 8, !tbaa !8
  %61 = call zeroext i8 @lean_ctor_get_uint8(ptr noundef %60, i32 noundef 8)
  store i8 %61, ptr %14, align 1, !tbaa !10
  %62 = load ptr, ptr %5, align 8, !tbaa !8
  %63 = call zeroext i8 @lean_ctor_get_uint8(ptr noundef %62, i32 noundef 9)
  store i8 %63, ptr %15, align 1, !tbaa !10
  %64 = load ptr, ptr %10, align 8, !tbaa !8
  %65 = load ptr, ptr %13, align 8, !tbaa !8
  %66 = call zeroext i8 @lean_nat_dec_eq(ptr noundef %64, ptr noundef %65)
  store i8 %66, ptr %17, align 1, !tbaa !10
  %67 = load i8, ptr %17, align 1, !tbaa !10
  %68 = zext i8 %67 to i32
  %69 = icmp eq i32 %68, 0
  br i1 %69, label %70, label %72

70:                                               ; preds = %51
  call void @llvm.lifetime.start.p0(i64 1, ptr %18) #7
  store i8 0, ptr %18, align 1, !tbaa !10
  %71 = load i8, ptr %18, align 1, !tbaa !10
  store i8 %71, ptr %3, align 1
  store i32 1, ptr %19, align 4
  call void @llvm.lifetime.end.p0(i64 1, ptr %18) #7
  br label %116

72:                                               ; preds = %51
  %73 = load i8, ptr %11, align 1, !tbaa !10
  %74 = zext i8 %73 to i32
  %75 = icmp eq i32 %74, 0
  br i1 %75, label %76, label %86

76:                                               ; preds = %72
  %77 = load i8, ptr %14, align 1, !tbaa !10
  %78 = zext i8 %77 to i32
  %79 = icmp eq i32 %78, 0
  br i1 %79, label %80, label %83

80:                                               ; preds = %76
  call void @llvm.lifetime.start.p0(i64 1, ptr %20) #7
  store i8 1, ptr %20, align 1, !tbaa !10
  %81 = load i8, ptr %20, align 1, !tbaa !10
  store i8 %81, ptr %16, align 1, !tbaa !10
  store i32 4, ptr %19, align 4
  call void @llvm.lifetime.end.p0(i64 1, ptr %20) #7
  %82 = load i32, ptr %19, align 4
  switch i32 %82, label %116 [
    i32 4, label %96
  ]

83:                                               ; preds = %76
  call void @llvm.lifetime.start.p0(i64 1, ptr %21) #7
  store i8 0, ptr %21, align 1, !tbaa !10
  %84 = load i8, ptr %21, align 1, !tbaa !10
  store i8 %84, ptr %16, align 1, !tbaa !10
  store i32 4, ptr %19, align 4
  call void @llvm.lifetime.end.p0(i64 1, ptr %21) #7
  %85 = load i32, ptr %19, align 4
  switch i32 %85, label %116 [
    i32 4, label %96
  ]

86:                                               ; preds = %72
  %87 = load i8, ptr %14, align 1, !tbaa !10
  %88 = zext i8 %87 to i32
  %89 = icmp eq i32 %88, 0
  br i1 %89, label %90, label %93

90:                                               ; preds = %86
  call void @llvm.lifetime.start.p0(i64 1, ptr %22) #7
  store i8 0, ptr %22, align 1, !tbaa !10
  %91 = load i8, ptr %22, align 1, !tbaa !10
  store i8 %91, ptr %16, align 1, !tbaa !10
  store i32 4, ptr %19, align 4
  call void @llvm.lifetime.end.p0(i64 1, ptr %22) #7
  %92 = load i32, ptr %19, align 4
  switch i32 %92, label %116 [
    i32 4, label %96
  ]

93:                                               ; preds = %86
  call void @llvm.lifetime.start.p0(i64 1, ptr %23) #7
  store i8 1, ptr %23, align 1, !tbaa !10
  %94 = load i8, ptr %23, align 1, !tbaa !10
  store i8 %94, ptr %16, align 1, !tbaa !10
  store i32 4, ptr %19, align 4
  call void @llvm.lifetime.end.p0(i64 1, ptr %23) #7
  %95 = load i32, ptr %19, align 4
  switch i32 %95, label %116 [
    i32 4, label %96
  ]

96:                                               ; preds = %93, %90, %83, %80
  %97 = load i8, ptr %16, align 1, !tbaa !10
  %98 = zext i8 %97 to i32
  %99 = icmp eq i32 %98, 0
  br i1 %99, label %100, label %102

100:                                              ; preds = %96
  call void @llvm.lifetime.start.p0(i64 1, ptr %24) #7
  store i8 0, ptr %24, align 1, !tbaa !10
  %101 = load i8, ptr %24, align 1, !tbaa !10
  store i8 %101, ptr %3, align 1
  store i32 1, ptr %19, align 4
  call void @llvm.lifetime.end.p0(i64 1, ptr %24) #7
  br label %116

102:                                              ; preds = %96
  %103 = load i8, ptr %12, align 1, !tbaa !10
  %104 = zext i8 %103 to i32
  %105 = icmp eq i32 %104, 0
  br i1 %105, label %106, label %114

106:                                              ; preds = %102
  %107 = load i8, ptr %15, align 1, !tbaa !10
  %108 = zext i8 %107 to i32
  %109 = icmp eq i32 %108, 0
  br i1 %109, label %110, label %112

110:                                              ; preds = %106
  call void @llvm.lifetime.start.p0(i64 1, ptr %25) #7
  store i8 1, ptr %25, align 1, !tbaa !10
  %111 = load i8, ptr %25, align 1, !tbaa !10
  store i8 %111, ptr %3, align 1
  store i32 1, ptr %19, align 4
  call void @llvm.lifetime.end.p0(i64 1, ptr %25) #7
  br label %116

112:                                              ; preds = %106
  call void @llvm.lifetime.start.p0(i64 1, ptr %26) #7
  store i8 0, ptr %26, align 1, !tbaa !10
  %113 = load i8, ptr %26, align 1, !tbaa !10
  store i8 %113, ptr %3, align 1
  store i32 1, ptr %19, align 4
  call void @llvm.lifetime.end.p0(i64 1, ptr %26) #7
  br label %116

114:                                              ; preds = %102
  %115 = load i8, ptr %15, align 1, !tbaa !10
  store i8 %115, ptr %3, align 1
  store i32 1, ptr %19, align 4
  br label %116

116:                                              ; preds = %114, %112, %110, %100, %93, %90, %83, %80, %70
  call void @llvm.lifetime.end.p0(i64 1, ptr %17) #7
  call void @llvm.lifetime.end.p0(i64 1, ptr %16) #7
  call void @llvm.lifetime.end.p0(i64 1, ptr %15) #7
  call void @llvm.lifetime.end.p0(i64 1, ptr %14) #7
  call void @llvm.lifetime.end.p0(i64 8, ptr %13) #7
  call void @llvm.lifetime.end.p0(i64 1, ptr %12) #7
  call void @llvm.lifetime.end.p0(i64 1, ptr %11) #7
  call void @llvm.lifetime.end.p0(i64 8, ptr %10) #7
  br label %119

117:                                              ; preds = %47
  call void @llvm.lifetime.start.p0(i64 1, ptr %27) #7
  store i8 0, ptr %27, align 1, !tbaa !10
  %118 = load i8, ptr %27, align 1, !tbaa !10
  store i8 %118, ptr %3, align 1
  store i32 1, ptr %19, align 4
  call void @llvm.lifetime.end.p0(i64 1, ptr %27) #7
  br label %119

119:                                              ; preds = %117, %116, %45, %43, %37, %35
  %120 = load i8, ptr %3, align 1
  ret i8 %120
}