; Function Attrs: nounwind uwtable
define zeroext i8 @l_Lean_Meta_Grind_beqSplitStatus____x40_Lean_Meta_Tactic_Grind_Split___hyg_44_(ptr noundef %0, ptr noundef %1) local_unnamed_addr #0 {
  %3 = ptrtoint ptr %0 to i64
  %4 = and i64 %3, 1
  %.not.i = icmp eq i64 %4, 0
  br i1 %.not.i, label %8, label %5

5:                                                ; preds = %2
  %6 = lshr i64 %3, 1
  %7 = trunc i64 %6 to i32
  br label %lean_obj_tag.exit

8:                                                ; preds = %2
  %9 = getelementptr i8, ptr %0, i64 4
  %.val.i = load i32, ptr %9, align 4
  %10 = lshr i32 %.val.i, 24
  br label %lean_obj_tag.exit

lean_obj_tag.exit:                                ; preds = %5, %8
  %.0.i45 = phi i32 [ %7, %5 ], [ %10, %8 ]
  %11 = ptrtoint ptr %1 to i64
  %12 = and i64 %11, 1
  %.not.i54 = icmp eq i64 %12, 0
  switch i32 %.0.i45, label %29 [
    i32 0, label %13
    i32 1, label %21
  ]

13:                                               ; preds = %lean_obj_tag.exit
  br i1 %.not.i54, label %17, label %14

14:                                               ; preds = %13
  %15 = lshr i64 %11, 1
  %16 = trunc i64 %15 to i32
  br label %lean_obj_tag.exit49

17:                                               ; preds = %13
  %18 = getelementptr i8, ptr %1, i64 4
  %.val.i48 = load i32, ptr %18, align 4
  %19 = lshr i32 %.val.i48, 24
  br label %lean_obj_tag.exit49

lean_obj_tag.exit49:                              ; preds = %14, %17
  %.0.i47 = phi i32 [ %16, %14 ], [ %19, %17 ]
  %20 = icmp eq i32 %.0.i47, 0
  %. = zext i1 %20 to i8
  br label %67

21:                                               ; preds = %lean_obj_tag.exit
  br i1 %.not.i54, label %25, label %22

22:                                               ; preds = %21
  %23 = lshr i64 %11, 1
  %24 = trunc i64 %23 to i32
  br label %lean_obj_tag.exit53

25:                                               ; preds = %21
  %26 = getelementptr i8, ptr %1, i64 4
  %.val.i52 = load i32, ptr %26, align 4
  %27 = lshr i32 %.val.i52, 24
  br label %lean_obj_tag.exit53

lean_obj_tag.exit53:                              ; preds = %22, %25
  %.0.i51 = phi i32 [ %24, %22 ], [ %27, %25 ]
  %28 = icmp eq i32 %.0.i51, 1
  %.41 = zext i1 %28 to i8
  br label %67

29:                                               ; preds = %lean_obj_tag.exit
  br i1 %.not.i54, label %33, label %30

30:                                               ; preds = %29
  %31 = lshr i64 %11, 1
  %32 = trunc i64 %31 to i32
  br label %lean_obj_tag.exit57

33:                                               ; preds = %29
  %34 = getelementptr i8, ptr %1, i64 4
  %.val.i56 = load i32, ptr %34, align 4
  %35 = lshr i32 %.val.i56, 24
  br label %lean_obj_tag.exit57

lean_obj_tag.exit57:                              ; preds = %30, %33
  %.0.i55 = phi i32 [ %32, %30 ], [ %35, %33 ]
  %36 = icmp eq i32 %.0.i55, 2
  br i1 %36, label %37, label %67

37:                                               ; preds = %lean_obj_tag.exit57
  %38 = getelementptr inbounds nuw i8, ptr %0, i64 8
  %39 = load ptr, ptr %38, align 8, !tbaa !4
  %40 = getelementptr inbounds nuw i8, ptr %0, i64 16
  %41 = load i8, ptr %40, align 1, !tbaa !8
  %42 = getelementptr inbounds nuw i8, ptr %0, i64 17
  %43 = load i8, ptr %42, align 1, !tbaa !8
  %44 = getelementptr inbounds nuw i8, ptr %1, i64 8
  %45 = load ptr, ptr %44, align 8, !tbaa !4
  %46 = getelementptr inbounds nuw i8, ptr %1, i64 16
  %47 = load i8, ptr %46, align 1, !tbaa !8
  %48 = getelementptr inbounds nuw i8, ptr %1, i64 17
  %49 = load i8, ptr %48, align 1, !tbaa !8
  %50 = ptrtoint ptr %39 to i64
  %51 = and i64 %50, 1
  %52 = icmp ne i64 %51, 0
  %53 = ptrtoint ptr %45 to i64
  %54 = and i64 %53, 1
  %55 = icmp ne i64 %54, 0
  %or.cond = select i1 %52, i1 %55, i1 false
  br i1 %or.cond, label %56, label %lean_nat_eq.exit, !prof !9

56:                                               ; preds = %37
  %57 = icmp eq ptr %39, %45
  br i1 %57, label %59, label %67

lean_nat_eq.exit:                                 ; preds = %37
  %58 = tail call zeroext i1 @lean_nat_big_eq(ptr noundef %39, ptr noundef %45) #4
  br i1 %58, label %59, label %67

59:                                               ; preds = %56, %lean_nat_eq.exit
  %60 = icmp eq i8 %41, 0
  %.not = icmp eq i8 %47, 0
  br i1 %60, label %61, label %62

61:                                               ; preds = %59
  br i1 %.not, label %63, label %67

62:                                               ; preds = %59
  br i1 %.not, label %67, label %63

63:                                               ; preds = %61, %62
  %64 = icmp eq i8 %43, 0
  br i1 %64, label %65, label %67

65:                                               ; preds = %63
  %66 = icmp eq i8 %49, 0
  %.44 = zext i1 %66 to i8
  br label %67

67:                                               ; preds = %56, %61, %lean_obj_tag.exit57, %lean_nat_eq.exit, %62, %65, %63, %lean_obj_tag.exit53, %lean_obj_tag.exit49
  %.0 = phi i8 [ %., %lean_obj_tag.exit49 ], [ %.41, %lean_obj_tag.exit53 ], [ 0, %lean_nat_eq.exit ], [ 0, %62 ], [ %.44, %65 ], [ %49, %63 ], [ 0, %lean_obj_tag.exit57 ], [ 0, %61 ], [ 0, %56 ]
  ret i8 %.0
}